; Function Attrs: mustprogress uwtable
define void @_ZN3nix33ValuePrintingTests_vExternal_Test8TestBodyEv(ptr noundef nonnull align 8 dereferenceable(1272) %0) unnamed_addr #4 align 2 personality ptr @__gxx_personality_v0 {
  %2 = alloca %struct.MyExternal, align 8
  %3 = alloca %"struct.nix::Value", align 8
  store ptr getelementptr inbounds ({ [11 x ptr] }, ptr @_ZTVZN3nix33ValuePrintingTests_vExternal_Test8TestBodyEvE10MyExternal, i64 0, i32 0, i64 2), ptr %2, align 8
  store i32 15, ptr %3, align 8
  %.sroa.24.0..sroa_idx = getelementptr inbounds i8, ptr %3, i64 8
  store ptr %2, ptr %.sroa.24.0..sroa_idx, align 8
  %.sroa.3.0..sroa_idx = getelementptr inbounds i8, ptr %3, i64 16
  store i64 0, ptr %.sroa.3.0..sroa_idx, align 8
  call void @_ZN3nix18ValuePrintingTests4testIJEEEvNS_5ValueESt17basic_string_viewIcSt11char_traitsIcEEDpT_(ptr noundef nonnull align 8 dereferenceable(1272) %0, ptr noundef nonnull byval(%"struct.nix::Value") align 8 %3, i64 17, ptr nonnull @.str.50)
  ret void
}